target datalayout = "e-m:e-p270:32:32-p271:32:32-p272:64:64-i64:64-i128:128-f80:128-n8:16:32:64-S128"
target triple = "x86_64-pc-linux-gnu"

@.str.10 = private unnamed_addr constant [14 x i8] c"object-file.c\00", align 1
@.str.25 = private unnamed_addr constant [58 x i8] c"could not get a type name for 'enum object_type' value %d\00", align 1
@.str.76 = private unnamed_addr constant [7 x i8] c"%s %lu\00", align 1

; Function Attrs: nounwind uwtable
define internal i32 @format_object_header_literally(ptr noundef %0, i64 noundef %1, ptr noundef %2, i64 noundef %3) #0 {
  %5 = alloca ptr, align 8
  %6 = alloca i64, align 8
  %7 = alloca ptr, align 8
  %8 = alloca i64, align 8
  store ptr %0, ptr %5, align 8, !tbaa !12
  store i64 %1, ptr %6, align 8, !tbaa !10
  store ptr %2, ptr %7, align 8, !tbaa !12
  store i64 %3, ptr %8, align 8, !tbaa !10
  %9 = load ptr, ptr %5, align 8, !tbaa !12
  %10 = load i64, ptr %6, align 8, !tbaa !10
  %11 = load ptr, ptr %7, align 8, !tbaa !12
  %12 = load i64, ptr %8, align 8, !tbaa !10
  %13 = call i32 (ptr, i64, ptr, ...) @xsnprintf(ptr noundef %9, i64 noundef %10, ptr noundef @.str.76, ptr noundef %11, i64 noundef %12)
  %14 = add nsw i32 %13, 1
  ret i32 %14
}

; Function Attrs: nounwind uwtable
define dso_local i32 @format_object_header(ptr noundef %0, i64 noundef %1, i32 noundef %2, i64 noundef %3) #0 {
  %5 = alloca ptr, align 8
  %6 = alloca i64, align 8
  %7 = alloca i32, align 4
  %8 = alloca i64, align 8
  %9 = alloca ptr, align 8
  store ptr %0, ptr %5, align 8, !tbaa !12
  store i64 %1, ptr %6, align 8, !tbaa !10
  store i32 %2, ptr %7, align 4, !tbaa !43
  store i64 %3, ptr %8, align 8, !tbaa !10
  call void @llvm.lifetime.start.p0(i64 8, ptr %9) #14
  %10 = load i32, ptr %7, align 4, !tbaa !43
  %11 = call ptr @type_name(i32 noundef %10)
  store ptr %11, ptr %9, align 8, !tbaa !12
  %12 = load ptr, ptr %9, align 8, !tbaa !12
  %13 = icmp ne ptr %12, null
  br i1 %13, label %16, label %14

14:                                               ; preds = %4
  %15 = load i32, ptr %7, align 4, !tbaa !43
  call void (ptr, i32, ptr, ...) @BUG_fl(ptr noundef @.str.10, i32 noundef 1159, ptr noundef @.str.25, i32 noundef %15) #13
  unreachable

16:                                               ; preds = %4
  %17 = load ptr, ptr %5, align 8, !tbaa !12
  %18 = load i64, ptr %6, align 8, !tbaa !10
  %19 = load ptr, ptr %9, align 8, !tbaa !12
  %20 = load i64, ptr %8, align 8, !tbaa !10
  %21 = call i32 @format_object_header_literally(ptr noundef %17, i64 noundef %18, ptr noundef %19, i64 noundef %20)
  call void @llvm.lifetime.end.p0(i64 8, ptr %9) #14
  ret i32 %21
}