; Function Attrs: nounwind uwtable
define dso_local range(i32 -2147483647, -2147483648) i32 @format_object_header(ptr noundef %0, i64 noundef %1, i32 noundef %2, i64 noundef %3) local_unnamed_addr #1 {
  %5 = tail call ptr @type_name(i32 noundef %2) #27
  %.not = icmp eq ptr %5, null
  br i1 %.not, label %6, label %7

6:                                                ; preds = %4
  tail call void (ptr, i32, ptr, ...) @BUG_fl(ptr noundef nonnull @.str.10, i32 noundef 1159, ptr noundef nonnull @.str.25, i32 noundef %2) #26
  unreachable

7:                                                ; preds = %4
  %8 = tail call i32 (ptr, i64, ptr, ...) @xsnprintf(ptr noundef %0, i64 noundef %1, ptr noundef nonnull @.str.76, ptr noundef nonnull %5, i64 noundef %3) #27
  %9 = add nsw i32 %8, 1
  ret i32 %9
}